; Function Attrs: mustprogress uwtable
define void @_ZN19PacketCommentDialog4textEv(ptr dead_on_unwind noalias writable sret(%class.QString) align 8 %0, ptr nocapture noundef nonnull readonly align 8 dereferenceable(72) %1) local_unnamed_addr #0 align 2 {
  %3 = getelementptr inbounds i8, ptr %1, i64 64
  %4 = load ptr, ptr %3, align 8
  %5 = getelementptr inbounds i8, ptr %4, i64 8
  %6 = load ptr, ptr %5, align 8
  %7 = tail call noundef ptr @_ZNK14QPlainTextEdit8documentEv(ptr noundef nonnull align 8 dereferenceable(40) %6), !noalias !12
  tail call void @_ZNK13QTextDocument11toPlainTextEv(ptr dead_on_unwind writable sret(%class.QString) align 8 %0, ptr noundef nonnull align 8 dereferenceable(16) %7)
  ret void
}